target datalayout = "e-m:e-p270:32:32-p271:32:32-p272:64:64-i64:64-i128:128-f80:128-n8:16:32:64-S128"
target triple = "x86_64-pc-linux-gnu"

@.str.114 = private unnamed_addr constant [2 x i8] c"0\00", align 1
@.str.116 = private unnamed_addr constant [3 x i8] c"10\00", align 1

; Function Attrs: nounwind uwtable
define internal ptr @ignoreeof_substitute_hook(ptr noundef %0) #0 {
  %2 = alloca ptr, align 8
  %3 = alloca i32, align 4
  store ptr %0, ptr %2, align 8
  call void @llvm.lifetime.start.p0(i64 4, ptr %3) #8
  %4 = load ptr, ptr %2, align 8
  %5 = icmp eq ptr %4, null
  br i1 %5, label %6, label %8

6:                                                ; preds = %1
  %7 = call ptr @pg_strdup(ptr noundef @.str.114)
  store ptr %7, ptr %2, align 8
  br label %14

8:                                                ; preds = %1
  %9 = load ptr, ptr %2, align 8
  %10 = call zeroext i1 @ParseVariableNum(ptr noundef %9, ptr noundef null, ptr noundef %3)
  br i1 %10, label %13, label %11

11:                                               ; preds = %8
  %12 = call ptr @pg_strdup(ptr noundef @.str.116)
  store ptr %12, ptr %2, align 8
  br label %13

13:                                               ; preds = %11, %8
  br label %14

14:                                               ; preds = %13, %6
  %15 = load ptr, ptr %2, align 8
  call void @llvm.lifetime.end.p0(i64 4, ptr %3) #8
  ret ptr %15
}