; Function Attrs: nounwind uwtable
define internal ptr @ignoreeof_substitute_hook(ptr noundef %0) #0 {
  %2 = alloca i32, align 4
  call void @llvm.lifetime.start.p0(i64 4, ptr nonnull %2) #15
  %3 = icmp eq ptr %0, null
  br i1 %3, label %4, label %6

4:                                                ; preds = %1
  %5 = tail call ptr @pg_strdup(ptr noundef nonnull @.str.114) #15
  br label %10

6:                                                ; preds = %1
  %7 = call zeroext i1 @ParseVariableNum(ptr noundef nonnull %0, ptr noundef null, ptr noundef nonnull %2) #15
  br i1 %7, label %10, label %8

8:                                                ; preds = %6
  %9 = call ptr @pg_strdup(ptr noundef nonnull @.str.116) #15
  br label %10

10:                                               ; preds = %6, %8, %4
  %.0 = phi ptr [ %5, %4 ], [ %0, %6 ], [ %9, %8 ]
  call void @llvm.lifetime.end.p0(i64 4, ptr nonnull %2) #15
  ret ptr %.0
}